; Function Attrs: nounwind uwtable
define ptr @lv_dropdown_bind_value(ptr noundef %0, ptr noundef %1) local_unnamed_addr #0 {
  %.not = icmp eq ptr %1, null
  br i1 %.not, label %.preheader, label %3

.preheader:                                       ; preds = %2, %.preheader
  br label %.preheader

3:                                                ; preds = %2
  %.not11 = icmp eq ptr %0, null
  br i1 %.not11, label %.preheader13, label %4

.preheader13:                                     ; preds = %3, %.preheader13
  br label %.preheader13

4:                                                ; preds = %3
  %5 = getelementptr inbounds nuw i8, ptr %1, i64 48
  %6 = load i32, ptr %5, align 8
  %7 = and i32 %6, 15
  %.not12 = icmp eq i32 %7, 2
  br i1 %.not12, label %8, label %lv_subject_add_observer_obj.exit

8:                                                ; preds = %4
  %9 = tail call ptr @lv_obj_add_event_cb(ptr noundef nonnull %0, ptr noundef nonnull @dropdown_value_changed_event_cb, i32 noundef 35, ptr noundef nonnull %1) #9
  %10 = load i32, ptr %5, align 8
  %11 = and i32 %10, 15
  %12 = icmp eq i32 %11, 0
  br i1 %12, label %lv_subject_add_observer_obj.exit, label %13

13:                                               ; preds = %8
  %14 = tail call ptr @lv_ll_ins_tail(ptr noundef nonnull %1) #9
  %.not28.i = icmp eq ptr %14, null
  br i1 %.not28.i, label %.preheader31.i, label %15

.preheader31.i:                                   ; preds = %13, %.preheader31.i
  br label %.preheader31.i

15:                                               ; preds = %13
  tail call void @lv_memset(ptr noundef nonnull %14, i8 noundef zeroext 0, i64 noundef 40) #9
  store ptr %1, ptr %14, align 8, !tbaa !9
  %16 = getelementptr inbounds nuw i8, ptr %14, i64 8
  store ptr @dropdown_value_observer_cb, ptr %16, align 8, !tbaa !12
  %17 = getelementptr inbounds nuw i8, ptr %14, i64 24
  store ptr null, ptr %17, align 8, !tbaa !13
  %18 = getelementptr inbounds nuw i8, ptr %14, i64 16
  store ptr %0, ptr %18, align 8, !tbaa !14
  %19 = getelementptr inbounds nuw i8, ptr %14, i64 32
  %20 = load i8, ptr %19, align 8
  %21 = or i8 %20, 4
  store i8 %21, ptr %19, align 8
  %22 = tail call ptr @lv_obj_add_event_cb(ptr noundef nonnull %0, ptr noundef nonnull @unsubscribe_on_delete_cb, i32 noundef 41, ptr noundef nonnull %14) #9
  %.pre.i = load ptr, ptr %16, align 8, !tbaa !12
  %.not30.i = icmp eq ptr %.pre.i, null
  br i1 %.not30.i, label %lv_subject_add_observer_obj.exit, label %23

23:                                               ; preds = %15
  tail call void %.pre.i(ptr noundef nonnull %14, ptr noundef nonnull %1) #9
  br label %lv_subject_add_observer_obj.exit

lv_subject_add_observer_obj.exit:                 ; preds = %23, %15, %8, %4
  %.0 = phi ptr [ null, %4 ], [ null, %8 ], [ %14, %15 ], [ %14, %23 ]
  ret ptr %.0
}